target datalayout = "e-m:e-p270:32:32-p271:32:32-p272:64:64-i64:64-i128:128-f80:128-n8:16:32:64-S128"
target triple = "x86_64-pc-linux-gnu"

%class.cost_parser = type { %class.simple_parser, %class.arith_util, %class.ref_vector.4 }
%class.simple_parser = type { ptr, ptr, %class.map, %class.map.0, %class.ref_vector }
%class.map = type { %class.table2map }
%class.table2map = type { %class.core_hashtable }
%class.core_hashtable = type <{ ptr, i32, i32, i32, [4 x i8] }>
%class.map.0 = type { %class.table2map.1 }
%class.table2map.1 = type { %class.core_hashtable.2 }
%class.core_hashtable.2 = type <{ ptr, i32, i32, i32, [4 x i8] }>
%class.ref_vector = type { %class.ref_vector_core }
%class.ref_vector_core = type { %class.ref_manager_wrapper, %class.ptr_vector }
%class.ref_manager_wrapper = type { ptr }
%class.ptr_vector = type { %class.vector }
%class.vector = type { ptr }
%class.arith_util = type { ptr, ptr }
%class.ref_vector.4 = type { %class.ref_vector_core.5 }
%class.ref_vector_core.5 = type { %class.ref_manager_wrapper.6, %class.ptr_vector.7 }
%class.ref_manager_wrapper.6 = type { ptr }
%class.ptr_vector.7 = type { %class.vector.8 }
%class.vector.8 = type { ptr }

@_ZTV11cost_parser = hidden unnamed_addr constant { [6 x ptr] } { [6 x ptr] [ptr null, ptr @_ZTI11cost_parser, ptr @_ZN11cost_parserD2Ev, ptr @_ZN11cost_parserD0Ev, ptr @_ZN11cost_parser9parse_intERK8rational, ptr @_ZN11cost_parser11parse_floatERK8rational] }, align 8
@.str = private unnamed_addr constant [5 x i8] c"true\00", align 1
@.str.1 = private unnamed_addr constant [6 x i8] c"false\00", align 1
@.str.2 = private unnamed_addr constant [4 x i8] c"not\00", align 1
@.str.3 = private unnamed_addr constant [4 x i8] c"and\00", align 1
@.str.4 = private unnamed_addr constant [8 x i8] c"implies\00", align 1
@.str.5 = private unnamed_addr constant [3 x i8] c"or\00", align 1
@.str.6 = private unnamed_addr constant [4 x i8] c"ite\00", align 1
@.str.7 = private unnamed_addr constant [2 x i8] c"=\00", align 1
@.str.8 = private unnamed_addr constant [4 x i8] c"iff\00", align 1
@.str.9 = private unnamed_addr constant [4 x i8] c"xor\00", align 1
@.str.10 = private unnamed_addr constant [2 x i8] c"+\00", align 1
@.str.11 = private unnamed_addr constant [2 x i8] c"*\00", align 1
@.str.12 = private unnamed_addr constant [2 x i8] c"-\00", align 1
@.str.13 = private unnamed_addr constant [2 x i8] c"/\00", align 1
@.str.14 = private unnamed_addr constant [3 x i8] c"<=\00", align 1
@.str.15 = private unnamed_addr constant [3 x i8] c">=\00", align 1
@.str.16 = private unnamed_addr constant [2 x i8] c"<\00", align 1
@.str.17 = private unnamed_addr constant [2 x i8] c">\00", align 1

; Function Attrs: mustprogress nounwind uwtable
define linkonce_odr hidden void @_ZN6vectorIP3varLb0EjEC2Ev(ptr noundef nonnull align 8 dereferenceable(8) %0) unnamed_addr #6 comdat align 2 {
  %2 = alloca ptr, align 8
  store ptr %0, ptr %2, align 8, !tbaa !56
  %3 = load ptr, ptr %2, align 8
  %4 = getelementptr inbounds nuw %class.vector.8, ptr %3, i32 0, i32 0
  store ptr null, ptr %4, align 8, !tbaa !58
  ret void
}

; Function Attrs: mustprogress nounwind uwtable
define linkonce_odr hidden void @_ZN10ptr_vectorI3varEC2Ev(ptr noundef nonnull align 8 dereferenceable(8) %0) unnamed_addr #6 comdat align 2 {
  %2 = alloca ptr, align 8
  store ptr %0, ptr %2, align 8, !tbaa !108
  %3 = load ptr, ptr %2, align 8
  call void @_ZN6vectorIP3varLb0EjEC2Ev(ptr noundef nonnull align 8 dereferenceable(8) %3) #3
  ret void
}

; Function Attrs: mustprogress nounwind uwtable
define linkonce_odr hidden void @_ZN15ref_vector_coreI3var19ref_manager_wrapperIS0_11ast_managerEEC2ERKS3_(ptr noundef nonnull align 8 dereferenceable(16) %0, ptr noundef nonnull align 8 dereferenceable(8) %1) unnamed_addr #6 comdat align 2 {
  %3 = alloca ptr, align 8
  %4 = alloca ptr, align 8
  store ptr %0, ptr %3, align 8, !tbaa !18
  store ptr %1, ptr %4, align 8, !tbaa !60
  %5 = load ptr, ptr %3, align 8
  %6 = load ptr, ptr %4, align 8, !tbaa !60
  call void @llvm.memcpy.p0.p0.i64(ptr align 8 %5, ptr align 8 %6, i64 8, i1 false), !tbaa.struct !107
  %7 = getelementptr inbounds nuw %class.ref_vector_core.5, ptr %5, i32 0, i32 1
  call void @_ZN10ptr_vectorI3varEC2Ev(ptr noundef nonnull align 8 dereferenceable(8) %7) #3
  ret void
}

; Function Attrs: mustprogress nounwind uwtable
define linkonce_odr hidden void @_ZN19ref_manager_wrapperI3var11ast_managerEC2ERS1_(ptr noundef nonnull align 8 dereferenceable(8) %0, ptr noundef nonnull align 8 dereferenceable(976) %1) unnamed_addr #6 comdat align 2 {
  %3 = alloca ptr, align 8
  %4 = alloca ptr, align 8
  store ptr %0, ptr %3, align 8, !tbaa !60
  store ptr %1, ptr %4, align 8, !tbaa !8
  %5 = load ptr, ptr %3, align 8
  %6 = getelementptr inbounds nuw %class.ref_manager_wrapper.6, ptr %5, i32 0, i32 0
  %7 = load ptr, ptr %4, align 8, !tbaa !8
  store ptr %7, ptr %6, align 8, !tbaa !8
  ret void
}

; Function Attrs: mustprogress nounwind uwtable
define linkonce_odr hidden noundef i32 @_ZNK17arith_recognizers13get_family_idEv(ptr noundef nonnull align 1 dereferenceable(1) %0) #6 comdat align 2 {
  %2 = alloca ptr, align 8
  store ptr %0, ptr %2, align 8, !tbaa !16
  ret i32 5
}

; Function Attrs: mustprogress nounwind uwtable
define linkonce_odr hidden noundef i32 @_ZNK11ast_manager19get_basic_family_idEv(ptr noundef nonnull align 8 dereferenceable(976) %0) #6 comdat align 2 {
  %2 = alloca ptr, align 8
  store ptr %0, ptr %2, align 8, !tbaa !8
  ret i32 0
}

; Function Attrs: mustprogress uwtable
define linkonce_odr hidden void @_ZN10ref_vectorI3var11ast_managerEC2ERS1_(ptr noundef nonnull align 8 dereferenceable(16) %0, ptr noundef nonnull align 8 dereferenceable(976) %1) unnamed_addr #4 comdat align 2 {
  %3 = alloca ptr, align 8
  %4 = alloca ptr, align 8
  %5 = alloca %class.ref_manager_wrapper.6, align 8
  store ptr %0, ptr %3, align 8, !tbaa !14
  store ptr %1, ptr %4, align 8, !tbaa !8
  %6 = load ptr, ptr %3, align 8
  call void @llvm.lifetime.start.p0(i64 8, ptr %5) #3
  %7 = load ptr, ptr %4, align 8, !tbaa !8
  call void @_ZN19ref_manager_wrapperI3var11ast_managerEC2ERS1_(ptr noundef nonnull align 8 dereferenceable(8) %5, ptr noundef nonnull align 8 dereferenceable(976) %7)
  call void @_ZN15ref_vector_coreI3var19ref_manager_wrapperIS0_11ast_managerEEC2ERKS3_(ptr noundef nonnull align 8 dereferenceable(16) %6, ptr noundef nonnull align 8 dereferenceable(8) %5)
  call void @llvm.lifetime.end.p0(i64 8, ptr %5) #3
  ret void
}

; Function Attrs: mustprogress uwtable
define hidden void @_ZN11cost_parserC2ER11ast_manager(ptr noundef nonnull align 8 dereferenceable(112) %0, ptr noundef nonnull align 8 dereferenceable(976) %1) unnamed_addr #4 align 2 personality ptr @__gxx_personality_v0 {
  %3 = alloca ptr, align 8
  %4 = alloca ptr, align 8
  %5 = alloca ptr, align 8
  %6 = alloca i32, align 4
  %7 = alloca i32, align 4
  store ptr %0, ptr %3, align 8, !tbaa !3
  store ptr %1, ptr %4, align 8, !tbaa !8
  %8 = load ptr, ptr %3, align 8
  %9 = load ptr, ptr %4, align 8, !tbaa !8
  call void @_ZN13simple_parserC2ER11ast_manager(ptr noundef nonnull align 8 dereferenceable(80) %8, ptr noundef nonnull align 8 dereferenceable(976) %9)
  store ptr getelementptr inbounds inrange(-16, 32) ({ [6 x ptr] }, ptr @_ZTV11cost_parser, i32 0, i32 0, i32 2), ptr %8, align 8, !tbaa !10
  %10 = getelementptr inbounds nuw %class.cost_parser, ptr %8, i32 0, i32 1
  %11 = load ptr, ptr %4, align 8, !tbaa !8
  invoke void @_ZN10arith_utilC1ER11ast_manager(ptr noundef nonnull align 8 dereferenceable(16) %10, ptr noundef nonnull align 8 dereferenceable(976) %11)
          to label %12 unwind label %58

12:                                               ; preds = %2
  %13 = getelementptr inbounds nuw %class.cost_parser, ptr %8, i32 0, i32 2
  %14 = load ptr, ptr %4, align 8, !tbaa !8
  invoke void @_ZN10ref_vectorI3var11ast_managerEC2ERS1_(ptr noundef nonnull align 8 dereferenceable(16) %13, ptr noundef nonnull align 8 dereferenceable(976) %14)
          to label %15 unwind label %58

15:                                               ; preds = %12
  call void @llvm.lifetime.start.p0(i64 4, ptr %7) #3
  %16 = load ptr, ptr %4, align 8, !tbaa !8
  %17 = invoke noundef i32 @_ZNK11ast_manager19get_basic_family_idEv(ptr noundef nonnull align 8 dereferenceable(976) %16)
          to label %18 unwind label %62

18:                                               ; preds = %15
  store i32 %17, ptr %7, align 4, !tbaa !12
  %19 = load i32, ptr %7, align 4, !tbaa !12
  invoke void @_ZN13simple_parser14add_builtin_opEPKcii(ptr noundef nonnull align 8 dereferenceable(80) %8, ptr noundef @.str, i32 noundef %19, i32 noundef 0)
          to label %20 unwind label %62

20:                                               ; preds = %18
  %21 = load i32, ptr %7, align 4, !tbaa !12
  invoke void @_ZN13simple_parser14add_builtin_opEPKcii(ptr noundef nonnull align 8 dereferenceable(80) %8, ptr noundef @.str.1, i32 noundef %21, i32 noundef 1)
          to label %22 unwind label %62

22:                                               ; preds = %20
  %23 = load i32, ptr %7, align 4, !tbaa !12
  invoke void @_ZN13simple_parser14add_builtin_opEPKcii(ptr noundef nonnull align 8 dereferenceable(80) %8, ptr noundef @.str.2, i32 noundef %23, i32 noundef 8)
          to label %24 unwind label %62

24:                                               ; preds = %22
  %25 = load i32, ptr %7, align 4, !tbaa !12
  invoke void @_ZN13simple_parser14add_builtin_opEPKcii(ptr noundef nonnull align 8 dereferenceable(80) %8, ptr noundef @.str.3, i32 noundef %25, i32 noundef 5)
          to label %26 unwind label %62

26:                                               ; preds = %24
  %27 = load i32, ptr %7, align 4, !tbaa !12
  invoke void @_ZN13simple_parser14add_builtin_opEPKcii(ptr noundef nonnull align 8 dereferenceable(80) %8, ptr noundef @.str.4, i32 noundef %27, i32 noundef 9)
          to label %28 unwind label %62

28:                                               ; preds = %26
  %29 = load i32, ptr %7, align 4, !tbaa !12
  invoke void @_ZN13simple_parser14add_builtin_opEPKcii(ptr noundef nonnull align 8 dereferenceable(80) %8, ptr noundef @.str.5, i32 noundef %29, i32 noundef 6)
          to label %30 unwind label %62

30:                                               ; preds = %28
  %31 = load i32, ptr %7, align 4, !tbaa !12
  invoke void @_ZN13simple_parser14add_builtin_opEPKcii(ptr noundef nonnull align 8 dereferenceable(80) %8, ptr noundef @.str.6, i32 noundef %31, i32 noundef 4)
          to label %32 unwind label %62

32:                                               ; preds = %30
  %33 = load i32, ptr %7, align 4, !tbaa !12
  invoke void @_ZN13simple_parser14add_builtin_opEPKcii(ptr noundef nonnull align 8 dereferenceable(80) %8, ptr noundef @.str.7, i32 noundef %33, i32 noundef 2)
          to label %34 unwind label %62

34:                                               ; preds = %32
  %35 = load i32, ptr %7, align 4, !tbaa !12
  invoke void @_ZN13simple_parser14add_builtin_opEPKcii(ptr noundef nonnull align 8 dereferenceable(80) %8, ptr noundef @.str.8, i32 noundef %35, i32 noundef 2)
          to label %36 unwind label %62

36:                                               ; preds = %34
  %37 = load i32, ptr %7, align 4, !tbaa !12
  invoke void @_ZN13simple_parser14add_builtin_opEPKcii(ptr noundef nonnull align 8 dereferenceable(80) %8, ptr noundef @.str.9, i32 noundef %37, i32 noundef 7)
          to label %38 unwind label %62

38:                                               ; preds = %36
  %39 = getelementptr inbounds nuw %class.cost_parser, ptr %8, i32 0, i32 1
  %40 = invoke noundef i32 @_ZNK17arith_recognizers13get_family_idEv(ptr noundef nonnull align 1 dereferenceable(1) %39)
          to label %41 unwind label %62

41:                                               ; preds = %38
  store i32 %40, ptr %7, align 4, !tbaa !12
  %42 = load i32, ptr %7, align 4, !tbaa !12
  invoke void @_ZN13simple_parser14add_builtin_opEPKcii(ptr noundef nonnull align 8 dereferenceable(80) %8, ptr noundef @.str.10, i32 noundef %42, i32 noundef 6)
          to label %43 unwind label %62

43:                                               ; preds = %41
  %44 = load i32, ptr %7, align 4, !tbaa !12
  invoke void @_ZN13simple_parser14add_builtin_opEPKcii(ptr noundef nonnull align 8 dereferenceable(80) %8, ptr noundef @.str.11, i32 noundef %44, i32 noundef 9)
          to label %45 unwind label %62

45:                                               ; preds = %43
  %46 = load i32, ptr %7, align 4, !tbaa !12
  invoke void @_ZN13simple_parser14add_builtin_opEPKcii(ptr noundef nonnull align 8 dereferenceable(80) %8, ptr noundef @.str.12, i32 noundef %46, i32 noundef 7)
          to label %47 unwind label %62

47:                                               ; preds = %45
  %48 = load i32, ptr %7, align 4, !tbaa !12
  invoke void @_ZN13simple_parser14add_builtin_opEPKcii(ptr noundef nonnull align 8 dereferenceable(80) %8, ptr noundef @.str.13, i32 noundef %48, i32 noundef 10)
          to label %49 unwind label %62

49:                                               ; preds = %47
  %50 = load i32, ptr %7, align 4, !tbaa !12
  invoke void @_ZN13simple_parser14add_builtin_opEPKcii(ptr noundef nonnull align 8 dereferenceable(80) %8, ptr noundef @.str.14, i32 noundef %50, i32 noundef 2)
          to label %51 unwind label %62

51:                                               ; preds = %49
  %52 = load i32, ptr %7, align 4, !tbaa !12
  invoke void @_ZN13simple_parser14add_builtin_opEPKcii(ptr noundef nonnull align 8 dereferenceable(80) %8, ptr noundef @.str.15, i32 noundef %52, i32 noundef 3)
          to label %53 unwind label %62

53:                                               ; preds = %51
  %54 = load i32, ptr %7, align 4, !tbaa !12
  invoke void @_ZN13simple_parser14add_builtin_opEPKcii(ptr noundef nonnull align 8 dereferenceable(80) %8, ptr noundef @.str.16, i32 noundef %54, i32 noundef 4)
          to label %55 unwind label %62

55:                                               ; preds = %53
  %56 = load i32, ptr %7, align 4, !tbaa !12
  invoke void @_ZN13simple_parser14add_builtin_opEPKcii(ptr noundef nonnull align 8 dereferenceable(80) %8, ptr noundef @.str.17, i32 noundef %56, i32 noundef 5)
          to label %57 unwind label %62

57:                                               ; preds = %55
  call void @llvm.lifetime.end.p0(i64 4, ptr %7) #3
  ret void

58:                                               ; preds = %12, %2
  %59 = landingpad { ptr, i32 }
          cleanup
  %60 = extractvalue { ptr, i32 } %59, 0
  store ptr %60, ptr %5, align 8
  %61 = extractvalue { ptr, i32 } %59, 1
  store i32 %61, ptr %6, align 4
  br label %66

62:                                               ; preds = %55, %53, %51, %49, %47, %45, %43, %41, %38, %36, %34, %32, %30, %28, %26, %24, %22, %20, %18, %15
  %63 = landingpad { ptr, i32 }
          cleanup
  %64 = extractvalue { ptr, i32 } %63, 0
  store ptr %64, ptr %5, align 8
  %65 = extractvalue { ptr, i32 } %63, 1
  store i32 %65, ptr %6, align 4
  call void @llvm.lifetime.end.p0(i64 4, ptr %7) #3
  call void @_ZN15ref_vector_coreI3var19ref_manager_wrapperIS0_11ast_managerEED2Ev(ptr noundef nonnull align 8 dereferenceable(16) %13) #3
  br label %66

66:                                               ; preds = %62, %58
  call void @_ZN13simple_parserD2Ev(ptr noundef nonnull align 8 dereferenceable(80) %8) #3
  br label %67

67:                                               ; preds = %66
  %68 = load ptr, ptr %5, align 8
  %69 = load i32, ptr %6, align 4
  %70 = insertvalue { ptr, i32 } poison, ptr %68, 0
  %71 = insertvalue { ptr, i32 } %70, i32 %69, 1
  resume { ptr, i32 } %71
}