; Function Attrs: mustprogress uwtable
define hidden void @_ZN11cost_parserC2ER11ast_manager(ptr noundef nonnull align 8 dereferenceable(112) %0, ptr noundef nonnull align 8 dereferenceable(976) %1) unnamed_addr #3 align 2 personality ptr @__gxx_personality_v0 {
  tail call void @_ZN13simple_parserC2ER11ast_manager(ptr noundef nonnull align 8 dereferenceable(80) %0, ptr noundef nonnull align 8 dereferenceable(976) %1)
  store ptr getelementptr inbounds nuw inrange(-16, 32) (i8, ptr @_ZTV11cost_parser, i64 16), ptr %0, align 8, !tbaa !3
  %3 = getelementptr inbounds nuw i8, ptr %0, i64 80
  invoke void @_ZN10arith_utilC1ER11ast_manager(ptr noundef nonnull align 8 dereferenceable(16) %3, ptr noundef nonnull align 8 dereferenceable(976) %1)
          to label %4 unwind label %26

4:                                                ; preds = %2
  %5 = getelementptr inbounds nuw i8, ptr %0, i64 96
  %6 = ptrtoint ptr %1 to i64
  store i64 %6, ptr %5, align 8, !tbaa !6
  %7 = getelementptr inbounds nuw i8, ptr %0, i64 104
  store ptr null, ptr %7, align 8, !tbaa !10
  invoke void @_ZN13simple_parser14add_builtin_opEPKcii(ptr noundef nonnull align 8 dereferenceable(80) %0, ptr noundef nonnull @.str, i32 noundef 0, i32 noundef 0)
          to label %8 unwind label %28

8:                                                ; preds = %4
  invoke void @_ZN13simple_parser14add_builtin_opEPKcii(ptr noundef nonnull align 8 dereferenceable(80) %0, ptr noundef nonnull @.str.1, i32 noundef 0, i32 noundef 1)
          to label %9 unwind label %28

9:                                                ; preds = %8
  invoke void @_ZN13simple_parser14add_builtin_opEPKcii(ptr noundef nonnull align 8 dereferenceable(80) %0, ptr noundef nonnull @.str.2, i32 noundef 0, i32 noundef 8)
          to label %10 unwind label %28

10:                                               ; preds = %9
  invoke void @_ZN13simple_parser14add_builtin_opEPKcii(ptr noundef nonnull align 8 dereferenceable(80) %0, ptr noundef nonnull @.str.3, i32 noundef 0, i32 noundef 5)
          to label %11 unwind label %28

11:                                               ; preds = %10
  invoke void @_ZN13simple_parser14add_builtin_opEPKcii(ptr noundef nonnull align 8 dereferenceable(80) %0, ptr noundef nonnull @.str.4, i32 noundef 0, i32 noundef 9)
          to label %12 unwind label %28

12:                                               ; preds = %11
  invoke void @_ZN13simple_parser14add_builtin_opEPKcii(ptr noundef nonnull align 8 dereferenceable(80) %0, ptr noundef nonnull @.str.5, i32 noundef 0, i32 noundef 6)
          to label %13 unwind label %28

13:                                               ; preds = %12
  invoke void @_ZN13simple_parser14add_builtin_opEPKcii(ptr noundef nonnull align 8 dereferenceable(80) %0, ptr noundef nonnull @.str.6, i32 noundef 0, i32 noundef 4)
          to label %14 unwind label %28

14:                                               ; preds = %13
  invoke void @_ZN13simple_parser14add_builtin_opEPKcii(ptr noundef nonnull align 8 dereferenceable(80) %0, ptr noundef nonnull @.str.7, i32 noundef 0, i32 noundef 2)
          to label %15 unwind label %28

15:                                               ; preds = %14
  invoke void @_ZN13simple_parser14add_builtin_opEPKcii(ptr noundef nonnull align 8 dereferenceable(80) %0, ptr noundef nonnull @.str.8, i32 noundef 0, i32 noundef 2)
          to label %16 unwind label %28

16:                                               ; preds = %15
  invoke void @_ZN13simple_parser14add_builtin_opEPKcii(ptr noundef nonnull align 8 dereferenceable(80) %0, ptr noundef nonnull @.str.9, i32 noundef 0, i32 noundef 7)
          to label %17 unwind label %28

17:                                               ; preds = %16
  invoke void @_ZN13simple_parser14add_builtin_opEPKcii(ptr noundef nonnull align 8 dereferenceable(80) %0, ptr noundef nonnull @.str.10, i32 noundef 5, i32 noundef 6)
          to label %18 unwind label %28

18:                                               ; preds = %17
  invoke void @_ZN13simple_parser14add_builtin_opEPKcii(ptr noundef nonnull align 8 dereferenceable(80) %0, ptr noundef nonnull @.str.11, i32 noundef 5, i32 noundef 9)
          to label %19 unwind label %28

19:                                               ; preds = %18
  invoke void @_ZN13simple_parser14add_builtin_opEPKcii(ptr noundef nonnull align 8 dereferenceable(80) %0, ptr noundef nonnull @.str.12, i32 noundef 5, i32 noundef 7)
          to label %20 unwind label %28

20:                                               ; preds = %19
  invoke void @_ZN13simple_parser14add_builtin_opEPKcii(ptr noundef nonnull align 8 dereferenceable(80) %0, ptr noundef nonnull @.str.13, i32 noundef 5, i32 noundef 10)
          to label %21 unwind label %28

21:                                               ; preds = %20
  invoke void @_ZN13simple_parser14add_builtin_opEPKcii(ptr noundef nonnull align 8 dereferenceable(80) %0, ptr noundef nonnull @.str.14, i32 noundef 5, i32 noundef 2)
          to label %22 unwind label %28

22:                                               ; preds = %21
  invoke void @_ZN13simple_parser14add_builtin_opEPKcii(ptr noundef nonnull align 8 dereferenceable(80) %0, ptr noundef nonnull @.str.15, i32 noundef 5, i32 noundef 3)
          to label %23 unwind label %28

23:                                               ; preds = %22
  invoke void @_ZN13simple_parser14add_builtin_opEPKcii(ptr noundef nonnull align 8 dereferenceable(80) %0, ptr noundef nonnull @.str.16, i32 noundef 5, i32 noundef 4)
          to label %24 unwind label %28

24:                                               ; preds = %23
  invoke void @_ZN13simple_parser14add_builtin_opEPKcii(ptr noundef nonnull align 8 dereferenceable(80) %0, ptr noundef nonnull @.str.17, i32 noundef 5, i32 noundef 5)
          to label %25 unwind label %28

25:                                               ; preds = %24
  ret void

26:                                               ; preds = %2
  %27 = landingpad { ptr, i32 }
          cleanup
  br label %30

28:                                               ; preds = %24, %23, %22, %21, %20, %19, %18, %17, %16, %15, %14, %13, %12, %11, %10, %9, %8, %4
  %29 = landingpad { ptr, i32 }
          cleanup
  tail call void @_ZN15ref_vector_coreI3var19ref_manager_wrapperIS0_11ast_managerEED2Ev(ptr noundef nonnull align 8 dereferenceable(16) %5) #17
  br label %30

30:                                               ; preds = %28, %26
  %.pn = phi { ptr, i32 } [ %29, %28 ], [ %27, %26 ]
  tail call void @_ZN13simple_parserD2Ev(ptr noundef nonnull align 8 dereferenceable(80) %0) #17
  resume { ptr, i32 } %.pn
}